; Function Attrs: nounwind uwtable
define internal i32 @dissect_tcpopt_qs(ptr noundef %0, ptr noundef %1, ptr noundef %2, ptr readnone captures(none) %3) #0 {
  %5 = load i32, ptr @proto_tcp_option_qs, align 4
  %6 = tail call ptr @proto_tree_add_item(ptr noundef %2, i32 noundef %5, ptr noundef %0, i32 noundef 0, i32 noundef -1, i32 noundef 0) #20
  %7 = load i32, ptr @ett_tcp_opt_qs, align 4
  %8 = tail call ptr @proto_item_add_subtree(ptr noundef %6, i32 noundef %7) #20
  %9 = load i32, ptr @hf_tcp_option_kind, align 4
  %10 = tail call ptr @proto_tree_add_item(ptr noundef %8, i32 noundef %9, ptr noundef %0, i32 noundef 0, i32 noundef 1, i32 noundef 0) #20
  %11 = load i32, ptr @hf_tcp_option_len, align 4
  %12 = tail call ptr @proto_tree_add_item(ptr noundef %8, i32 noundef %11, ptr noundef %0, i32 noundef 1, i32 noundef 1, i32 noundef 0) #20
  %13 = tail call i32 @tvb_reported_length(ptr noundef %0) #20
  %.not.i = icmp eq i32 %13, 8
  br i1 %.not.i, label %tcp_option_len_check.exit, label %14

14:                                               ; preds = %4
  %15 = tail call ptr (ptr, ptr, ptr, ptr, ...) @expert_add_info_format(ptr noundef %1, ptr noundef %12, ptr noundef nonnull @ei_tcp_opt_len_invalid, ptr noundef nonnull @.str.985, i32 noundef 8) #20
  br label %26

tcp_option_len_check.exit:                        ; preds = %4
  %16 = tail call zeroext i8 @tvb_get_guint8(ptr noundef %0, i32 noundef 2) #20
  %17 = and i8 %16, 15
  %18 = getelementptr inbounds nuw i8, ptr %1, i64 8
  %19 = load ptr, ptr %18, align 8
  %20 = zext nneg i8 %17 to i32
  %21 = tail call ptr @val_to_str_ext_const(i32 noundef %20, ptr noundef nonnull @qs_rate_vals_ext, ptr noundef nonnull @.str.717) #20
  tail call void (ptr, i32, ptr, ...) @col_append_lstr(ptr noundef %19, i32 noundef 25, ptr noundef nonnull @.str.1019, ptr noundef %21, ptr noundef nonnull inttoptr (i64 -1 to ptr)) #20
  %22 = load i32, ptr @hf_tcp_option_qs_rate, align 4
  %23 = tail call ptr @proto_tree_add_item(ptr noundef %8, i32 noundef %22, ptr noundef %0, i32 noundef 2, i32 noundef 1, i32 noundef 0) #20
  %24 = load i32, ptr @hf_tcp_option_qs_ttl_diff, align 4
  %25 = tail call ptr @proto_tree_add_item(ptr noundef %8, i32 noundef %24, ptr noundef %0, i32 noundef 3, i32 noundef 1, i32 noundef 0) #20
  br label %26

26:                                               ; preds = %tcp_option_len_check.exit, %14
  %27 = tail call i32 @tvb_captured_length(ptr noundef %0) #20
  ret i32 %27
}